target datalayout = "e-m:e-p270:32:32-p271:32:32-p272:64:64-i64:64-i128:128-f80:128-n8:16:32:64-S128"
target triple = "x86_64-pc-linux-gnu"

%struct.rb_shape = type { ptr, i64, i32, i32, i8, i8, i32, ptr }

; Function Attrs: nounwind sspstrong uwtable
define dso_local i64 @rb_shape_memsize(ptr noundef %0) #0 {
  %2 = alloca ptr, align 8
  %3 = alloca i64, align 8
  store ptr %0, ptr %2, align 8, !tbaa !16
  call void @llvm.lifetime.start.p0(i64 8, ptr %3) #14
  store i64 40, ptr %3, align 8, !tbaa !26
  %4 = load ptr, ptr %2, align 8, !tbaa !16
  %5 = getelementptr inbounds nuw %struct.rb_shape, ptr %4, i32 0, i32 0
  %6 = load ptr, ptr %5, align 8, !tbaa !51
  %7 = icmp ne ptr %6, null
  br i1 %7, label %8, label %22

8:                                                ; preds = %1
  %9 = load ptr, ptr %2, align 8, !tbaa !16
  %10 = getelementptr inbounds nuw %struct.rb_shape, ptr %9, i32 0, i32 0
  %11 = load ptr, ptr %10, align 8, !tbaa !51
  %12 = ptrtoint ptr %11 to i64
  %13 = and i64 %12, 1
  %14 = icmp ne i64 %13, 0
  br i1 %14, label %22, label %15

15:                                               ; preds = %8
  %16 = load ptr, ptr %2, align 8, !tbaa !16
  %17 = getelementptr inbounds nuw %struct.rb_shape, ptr %16, i32 0, i32 0
  %18 = load ptr, ptr %17, align 8, !tbaa !51
  %19 = call i64 @rb_id_table_memsize(ptr noundef %18)
  %20 = load i64, ptr %3, align 8, !tbaa !26
  %21 = add i64 %20, %19
  store i64 %21, ptr %3, align 8, !tbaa !26
  br label %22

22:                                               ; preds = %15, %8, %1
  %23 = load i64, ptr %3, align 8, !tbaa !26
  call void @llvm.lifetime.end.p0(i64 8, ptr %3) #14
  ret i64 %23
}