; Function Attrs: nounwind sspstrong uwtable
define dso_local i64 @rb_shape_memsize(ptr noundef readonly captures(none) %0) local_unnamed_addr #1 {
  %2 = load ptr, ptr %0, align 8, !tbaa !46
  %.not = icmp ne ptr %2, null
  %3 = ptrtoint ptr %2 to i64
  %4 = and i64 %3, 1
  %.not5 = icmp eq i64 %4, 0
  %or.cond = and i1 %.not, %.not5
  br i1 %or.cond, label %5, label %8

5:                                                ; preds = %1
  %6 = tail call i64 @rb_id_table_memsize(ptr noundef nonnull %2) #15
  %7 = add i64 %6, 40
  br label %8

8:                                                ; preds = %5, %1
  %.0 = phi i64 [ %7, %5 ], [ 40, %1 ]
  ret i64 %.0
}